target datalayout = "e-m:e-p270:32:32-p271:32:32-p272:64:64-i64:64-i128:128-f80:128-n8:16:32:64-S128"
target triple = "x86_64-pc-linux-gnu"

%"class.cv::Point_" = type { float, float }
%"class.cv::details::Ellipse" = type { %"class.cv::Point_", %"class.cv::Size_.23", float, float, float }
%"class.cv::Size_.23" = type { float, float }

; Function Attrs: inlinehint mustprogress nounwind uwtable
define linkonce_odr hidden void @_ZN2cv6Point_IfEC2Eff(ptr noundef nonnull align 4 dereferenceable(8) %0, float noundef %1, float noundef %2) unnamed_addr #6 comdat align 2 {
  %4 = alloca ptr, align 8
  %5 = alloca float, align 4
  %6 = alloca float, align 4
  store ptr %0, ptr %4, align 8, !tbaa !42
  store float %1, ptr %5, align 4, !tbaa !7
  store float %2, ptr %6, align 4, !tbaa !7
  %7 = load ptr, ptr %4, align 8
  %8 = getelementptr inbounds nuw %"class.cv::Point_", ptr %7, i32 0, i32 0
  %9 = load float, ptr %5, align 4, !tbaa !7
  store float %9, ptr %8, align 4, !tbaa !44
  %10 = getelementptr inbounds nuw %"class.cv::Point_", ptr %7, i32 0, i32 1
  %11 = load float, ptr %6, align 4, !tbaa !7
  store float %11, ptr %10, align 4, !tbaa !46
  ret void
}

; Function Attrs: inlinehint mustprogress nounwind uwtable
define internal noundef float @_ZN2cvL13saturate_castIfEET_f(float noundef %0) #6 {
  %2 = alloca float, align 4
  store float %0, ptr %2, align 4, !tbaa !7
  %3 = load float, ptr %2, align 4, !tbaa !7
  ret float %3
}

; Function Attrs: inlinehint mustprogress uwtable
define internal <2 x float> @_ZN2cvmiIfEENS_6Point_IT_EERKS3_S5_(ptr noundef nonnull align 4 dereferenceable(8) %0, ptr noundef nonnull align 4 dereferenceable(8) %1) #11 {
  %3 = alloca %"class.cv::Point_", align 4
  %4 = alloca ptr, align 8
  %5 = alloca ptr, align 8
  store ptr %0, ptr %4, align 8, !tbaa !42
  store ptr %1, ptr %5, align 8, !tbaa !42
  %6 = load ptr, ptr %4, align 8, !tbaa !42
  %7 = getelementptr inbounds nuw %"class.cv::Point_", ptr %6, i32 0, i32 0
  %8 = load float, ptr %7, align 4, !tbaa !44
  %9 = load ptr, ptr %5, align 8, !tbaa !42
  %10 = getelementptr inbounds nuw %"class.cv::Point_", ptr %9, i32 0, i32 0
  %11 = load float, ptr %10, align 4, !tbaa !44
  %12 = fsub float %8, %11
  %13 = call noundef float @_ZN2cvL13saturate_castIfEET_f(float noundef %12)
  %14 = load ptr, ptr %4, align 8, !tbaa !42
  %15 = getelementptr inbounds nuw %"class.cv::Point_", ptr %14, i32 0, i32 1
  %16 = load float, ptr %15, align 4, !tbaa !46
  %17 = load ptr, ptr %5, align 8, !tbaa !42
  %18 = getelementptr inbounds nuw %"class.cv::Point_", ptr %17, i32 0, i32 1
  %19 = load float, ptr %18, align 4, !tbaa !46
  %20 = fsub float %16, %19
  %21 = call noundef float @_ZN2cvL13saturate_castIfEET_f(float noundef %20)
  call void @_ZN2cv6Point_IfEC2Eff(ptr noundef nonnull align 4 dereferenceable(8) %3, float noundef %13, float noundef %21)
  %22 = load <2 x float>, ptr %3, align 4
  ret <2 x float> %22
}

; Function Attrs: mustprogress uwtable
define hidden noundef zeroext i1 @_ZNK2cv7details7Ellipse8containsERKNS_6Point_IfEE(ptr noundef nonnull align 4 dereferenceable(28) %0, ptr noundef nonnull align 4 dereferenceable(8) %1) #10 align 2 {
  %3 = alloca i1, align 1
  %4 = alloca ptr, align 8
  %5 = alloca ptr, align 8
  %6 = alloca %"class.cv::Point_", align 4
  %7 = alloca float, align 4
  %8 = alloca float, align 4
  %9 = alloca i32, align 4
  store ptr %0, ptr %4, align 8, !tbaa !191
  store ptr %1, ptr %5, align 8, !tbaa !42
  %10 = load ptr, ptr %4, align 8
  call void @llvm.lifetime.start.p0(i64 8, ptr %6) #3
  %11 = load ptr, ptr %5, align 8, !tbaa !42
  %12 = getelementptr inbounds nuw %"class.cv::details::Ellipse", ptr %10, i32 0, i32 0
  %13 = call <2 x float> @_ZN2cvmiIfEENS_6Point_IT_EERKS3_S5_(ptr noundef nonnull align 4 dereferenceable(8) %11, ptr noundef nonnull align 4 dereferenceable(8) %12)
  store <2 x float> %13, ptr %6, align 4
  call void @llvm.lifetime.start.p0(i64 4, ptr %7) #3
  %14 = getelementptr inbounds nuw %"class.cv::details::Ellipse", ptr %10, i32 0, i32 3
  %15 = load float, ptr %14, align 4, !tbaa !196
  %16 = getelementptr inbounds nuw %"class.cv::Point_", ptr %6, i32 0, i32 0
  %17 = load float, ptr %16, align 4, !tbaa !44
  %18 = getelementptr inbounds nuw %"class.cv::details::Ellipse", ptr %10, i32 0, i32 4
  %19 = load float, ptr %18, align 4, !tbaa !197
  %20 = getelementptr inbounds nuw %"class.cv::Point_", ptr %6, i32 0, i32 1
  %21 = load float, ptr %20, align 4, !tbaa !46
  %22 = fmul float %19, %21
  %23 = call float @llvm.fmuladd.f32(float %15, float %17, float %22)
  store float %23, ptr %7, align 4, !tbaa !7
  call void @llvm.lifetime.start.p0(i64 4, ptr %8) #3
  %24 = getelementptr inbounds nuw %"class.cv::details::Ellipse", ptr %10, i32 0, i32 4
  %25 = load float, ptr %24, align 4, !tbaa !197
  %26 = fneg float %25
  %27 = getelementptr inbounds nuw %"class.cv::Point_", ptr %6, i32 0, i32 0
  %28 = load float, ptr %27, align 4, !tbaa !44
  %29 = getelementptr inbounds nuw %"class.cv::details::Ellipse", ptr %10, i32 0, i32 3
  %30 = load float, ptr %29, align 4, !tbaa !196
  %31 = getelementptr inbounds nuw %"class.cv::Point_", ptr %6, i32 0, i32 1
  %32 = load float, ptr %31, align 4, !tbaa !46
  %33 = fmul float %30, %32
  %34 = call float @llvm.fmuladd.f32(float %26, float %28, float %33)
  store float %34, ptr %8, align 4, !tbaa !7
  %35 = load float, ptr %7, align 4, !tbaa !7
  %36 = load float, ptr %7, align 4, !tbaa !7
  %37 = fmul float %35, %36
  %38 = getelementptr inbounds nuw %"class.cv::details::Ellipse", ptr %10, i32 0, i32 1
  %39 = getelementptr inbounds nuw %"class.cv::Size_.23", ptr %38, i32 0, i32 0
  %40 = load float, ptr %39, align 4, !tbaa !204
  %41 = getelementptr inbounds nuw %"class.cv::details::Ellipse", ptr %10, i32 0, i32 1
  %42 = getelementptr inbounds nuw %"class.cv::Size_.23", ptr %41, i32 0, i32 0
  %43 = load float, ptr %42, align 4, !tbaa !204
  %44 = fmul float %40, %43
  %45 = fdiv float %37, %44
  %46 = load float, ptr %8, align 4, !tbaa !7
  %47 = load float, ptr %8, align 4, !tbaa !7
  %48 = fmul float %46, %47
  %49 = getelementptr inbounds nuw %"class.cv::details::Ellipse", ptr %10, i32 0, i32 1
  %50 = getelementptr inbounds nuw %"class.cv::Size_.23", ptr %49, i32 0, i32 1
  %51 = load float, ptr %50, align 4, !tbaa !205
  %52 = getelementptr inbounds nuw %"class.cv::details::Ellipse", ptr %10, i32 0, i32 1
  %53 = getelementptr inbounds nuw %"class.cv::Size_.23", ptr %52, i32 0, i32 1
  %54 = load float, ptr %53, align 4, !tbaa !205
  %55 = fmul float %51, %54
  %56 = fdiv float %48, %55
  %57 = fadd float %45, %56
  %58 = fpext float %57 to double
  %59 = fcmp ole double %58, 1.000000e+00
  br i1 %59, label %60, label %61

60:                                               ; preds = %2
  store i1 true, ptr %3, align 1
  store i32 1, ptr %9, align 4
  br label %62

61:                                               ; preds = %2
  store i1 false, ptr %3, align 1
  store i32 1, ptr %9, align 4
  br label %62

62:                                               ; preds = %61, %60
  call void @llvm.lifetime.end.p0(i64 4, ptr %8) #3
  call void @llvm.lifetime.end.p0(i64 4, ptr %7) #3
  call void @llvm.lifetime.end.p0(i64 8, ptr %6) #3
  %63 = load i1, ptr %3, align 1
  ret i1 %63
}