; Function Attrs: mustprogress nofree norecurse nosync nounwind willreturn memory(argmem: read) uwtable
define hidden noundef zeroext i1 @_ZNK2cv7details7Ellipse8containsERKNS_6Point_IfEE(ptr noundef nonnull readonly align 4 captures(none) dereferenceable(28) %0, ptr noundef nonnull readonly align 4 captures(none) dereferenceable(8) %1) local_unnamed_addr #17 align 2 {
  %.val = load float, ptr %1, align 4, !tbaa !168
  %3 = getelementptr inbounds nuw i8, ptr %1, i64 4
  %.val11 = load float, ptr %3, align 4, !tbaa !169
  %.val12 = load float, ptr %0, align 4, !tbaa !168
  %4 = getelementptr inbounds nuw i8, ptr %0, i64 4
  %.val13 = load float, ptr %4, align 4, !tbaa !169
  %5 = fsub float %.val, %.val12
  %6 = fsub float %.val11, %.val13
  %7 = getelementptr inbounds nuw i8, ptr %0, i64 20
  %8 = load float, ptr %7, align 4, !tbaa !166
  %9 = getelementptr inbounds nuw i8, ptr %0, i64 24
  %10 = load float, ptr %9, align 4, !tbaa !167
  %11 = fmul float %6, %10
  %12 = tail call float @llvm.fmuladd.f32(float %8, float %5, float %11)
  %13 = fneg float %10
  %14 = fmul float %8, %6
  %15 = tail call float @llvm.fmuladd.f32(float %13, float %5, float %14)
  %16 = fmul float %12, %12
  %17 = getelementptr inbounds nuw i8, ptr %0, i64 8
  %18 = load float, ptr %17, align 4, !tbaa !170
  %19 = fmul float %18, %18
  %20 = fdiv float %16, %19
  %21 = fmul float %15, %15
  %22 = getelementptr inbounds nuw i8, ptr %0, i64 12
  %23 = load float, ptr %22, align 4, !tbaa !171
  %24 = fmul float %23, %23
  %25 = fdiv float %21, %24
  %26 = fadd float %20, %25
  %27 = fcmp ole float %26, 1.000000e+00
  ret i1 %27
}